target datalayout = "e-m:e-p270:32:32-p271:32:32-p272:64:64-i64:64-i128:128-f80:128-n8:16:32:64-S128"
target triple = "x86_64-unknown-linux-gnu"

%"struct.std::_Rb_tree_key_compare" = type { %"struct.std::less" }
%"struct.std::less" = type { i8 }
%"struct.std::_Rb_tree_header" = type { %"struct.std::_Rb_tree_node_base", i64 }
%"struct.std::_Rb_tree_node_base" = type { i32, ptr, ptr, ptr }
%"class.std::map.234" = type { %"class.std::_Rb_tree.235" }
%"class.std::_Rb_tree.235" = type { %"struct.std::_Rb_tree<std::basic_string_view<char>, std::pair<const std::basic_string_view<char>, grpc_core::WeakRefCountedPtr<grpc_core::(anonymous namespace)::XdsResolver::ClusterRef>>, std::_Select1st<std::pair<const std::basic_string_view<char>, grpc_core::WeakRefCountedPtr<grpc_core::(anonymous namespace)::XdsResolver::ClusterRef>>>, std::less<std::basic_string_view<char>>>::_Rb_tree_impl" }
%"struct.std::_Rb_tree<std::basic_string_view<char>, std::pair<const std::basic_string_view<char>, grpc_core::WeakRefCountedPtr<grpc_core::(anonymous namespace)::XdsResolver::ClusterRef>>, std::_Select1st<std::pair<const std::basic_string_view<char>, grpc_core::WeakRefCountedPtr<grpc_core::(anonymous namespace)::XdsResolver::ClusterRef>>>, std::less<std::basic_string_view<char>>>::_Rb_tree_impl" = type { %"struct.std::_Rb_tree_key_compare", %"struct.std::_Rb_tree_header" }

; Function Attrs: mustprogress nounwind uwtable
define internal void @_ZNSt15__new_allocatorISt13_Rb_tree_nodeISt4pairIKSt17basic_string_viewIcSt11char_traitsIcEEN9grpc_core17WeakRefCountedPtrINS7_12_GLOBAL__N_111XdsResolver10ClusterRefEEEEEED2Ev(ptr noundef nonnull align 1 dereferenceable(1) %this) unnamed_addr #4 align 2 {
entry:
  %this.addr = alloca ptr, align 8
  store ptr %this, ptr %this.addr, align 8
  ret void
}

; Function Attrs: mustprogress nounwind uwtable
define internal void @_ZNSaISt13_Rb_tree_nodeISt4pairIKSt17basic_string_viewIcSt11char_traitsIcEEN9grpc_core17WeakRefCountedPtrINS6_12_GLOBAL__N_111XdsResolver10ClusterRefEEEEEED2Ev(ptr noundef nonnull align 1 dereferenceable(1) %this) unnamed_addr #4 align 2 {
entry:
  %this.addr = alloca ptr, align 8
  store ptr %this, ptr %this.addr, align 8
  %this1 = load ptr, ptr %this.addr, align 8
  call void @_ZNSt15__new_allocatorISt13_Rb_tree_nodeISt4pairIKSt17basic_string_viewIcSt11char_traitsIcEEN9grpc_core17WeakRefCountedPtrINS7_12_GLOBAL__N_111XdsResolver10ClusterRefEEEEEED2Ev(ptr noundef nonnull align 1 dereferenceable(1) %this1) #3
  ret void
}

; Function Attrs: mustprogress nounwind uwtable
define internal noundef ptr @_ZNKSt8_Rb_treeISt17basic_string_viewIcSt11char_traitsIcEESt4pairIKS3_N9grpc_core17WeakRefCountedPtrINS6_12_GLOBAL__N_111XdsResolver10ClusterRefEEEESt10_Select1stISC_ESt4lessIS3_ESaISC_EE9_M_mbeginEv(ptr noundef nonnull align 8 dereferenceable(48) %this) #4 align 2 {
entry:
  %this.addr = alloca ptr, align 8
  store ptr %this, ptr %this.addr, align 8
  %this1 = load ptr, ptr %this.addr, align 8
  %_M_impl = getelementptr inbounds %"class.std::_Rb_tree.235", ptr %this1, i32 0, i32 0
  %add.ptr = getelementptr inbounds i8, ptr %_M_impl, i64 8
  %_M_header = getelementptr inbounds %"struct.std::_Rb_tree_header", ptr %add.ptr, i32 0, i32 0
  %_M_parent = getelementptr inbounds %"struct.std::_Rb_tree_node_base", ptr %_M_header, i32 0, i32 1
  %0 = load ptr, ptr %_M_parent, align 8
  ret ptr %0
}

; Function Attrs: mustprogress nounwind uwtable
define internal void @_ZNSt8_Rb_treeISt17basic_string_viewIcSt11char_traitsIcEESt4pairIKS3_N9grpc_core17WeakRefCountedPtrINS6_12_GLOBAL__N_111XdsResolver10ClusterRefEEEESt10_Select1stISC_ESt4lessIS3_ESaISC_EE13_Rb_tree_implISG_Lb1EED2Ev(ptr noundef nonnull align 8 dereferenceable(48) %this) unnamed_addr #4 align 2 {
entry:
  %this.addr = alloca ptr, align 8
  store ptr %this, ptr %this.addr, align 8
  %this1 = load ptr, ptr %this.addr, align 8
  call void @_ZNSaISt13_Rb_tree_nodeISt4pairIKSt17basic_string_viewIcSt11char_traitsIcEEN9grpc_core17WeakRefCountedPtrINS6_12_GLOBAL__N_111XdsResolver10ClusterRefEEEEEED2Ev(ptr noundef nonnull align 1 dereferenceable(1) %this1) #3
  ret void
}

; Function Attrs: mustprogress nounwind uwtable
define internal noundef ptr @_ZNSt8_Rb_treeISt17basic_string_viewIcSt11char_traitsIcEESt4pairIKS3_N9grpc_core17WeakRefCountedPtrINS6_12_GLOBAL__N_111XdsResolver10ClusterRefEEEESt10_Select1stISC_ESt4lessIS3_ESaISC_EE8_M_beginEv(ptr noundef nonnull align 8 dereferenceable(48) %this) #4 align 2 {
entry:
  %this.addr = alloca ptr, align 8
  store ptr %this, ptr %this.addr, align 8
  %this1 = load ptr, ptr %this.addr, align 8
  %call = call noundef ptr @_ZNKSt8_Rb_treeISt17basic_string_viewIcSt11char_traitsIcEESt4pairIKS3_N9grpc_core17WeakRefCountedPtrINS6_12_GLOBAL__N_111XdsResolver10ClusterRefEEEESt10_Select1stISC_ESt4lessIS3_ESaISC_EE9_M_mbeginEv(ptr noundef nonnull align 8 dereferenceable(48) %this1) #3
  ret ptr %call
}

; Function Attrs: mustprogress nounwind uwtable
define internal void @_ZNSt8_Rb_treeISt17basic_string_viewIcSt11char_traitsIcEESt4pairIKS3_N9grpc_core17WeakRefCountedPtrINS6_12_GLOBAL__N_111XdsResolver10ClusterRefEEEESt10_Select1stISC_ESt4lessIS3_ESaISC_EED2Ev(ptr noundef nonnull align 8 dereferenceable(48) %this) unnamed_addr #4 align 2 personality ptr @__gxx_personality_v0 {
entry:
  %this.addr = alloca ptr, align 8
  store ptr %this, ptr %this.addr, align 8
  %this1 = load ptr, ptr %this.addr, align 8
  %call = call noundef ptr @_ZNSt8_Rb_treeISt17basic_string_viewIcSt11char_traitsIcEESt4pairIKS3_N9grpc_core17WeakRefCountedPtrINS6_12_GLOBAL__N_111XdsResolver10ClusterRefEEEESt10_Select1stISC_ESt4lessIS3_ESaISC_EE8_M_beginEv(ptr noundef nonnull align 8 dereferenceable(48) %this1) #3
  invoke void @_ZNSt8_Rb_treeISt17basic_string_viewIcSt11char_traitsIcEESt4pairIKS3_N9grpc_core17WeakRefCountedPtrINS6_12_GLOBAL__N_111XdsResolver10ClusterRefEEEESt10_Select1stISC_ESt4lessIS3_ESaISC_EE8_M_eraseEPSt13_Rb_tree_nodeISC_E(ptr noundef nonnull align 8 dereferenceable(48) %this1, ptr noundef %call)
          to label %invoke.cont unwind label %terminate.lpad

invoke.cont:                                      ; preds = %entry
  %_M_impl = getelementptr inbounds %"class.std::_Rb_tree.235", ptr %this1, i32 0, i32 0
  call void @_ZNSt8_Rb_treeISt17basic_string_viewIcSt11char_traitsIcEESt4pairIKS3_N9grpc_core17WeakRefCountedPtrINS6_12_GLOBAL__N_111XdsResolver10ClusterRefEEEESt10_Select1stISC_ESt4lessIS3_ESaISC_EE13_Rb_tree_implISG_Lb1EED2Ev(ptr noundef nonnull align 8 dereferenceable(48) %_M_impl) #3
  ret void

terminate.lpad:                                   ; preds = %entry
  %0 = landingpad { ptr, i32 }
          catch ptr null
  %1 = extractvalue { ptr, i32 } %0, 0
  call void @__clang_call_terminate(ptr %1) #18
  unreachable
}

; Function Attrs: mustprogress nounwind uwtable
define internal void @_ZNSt3mapISt17basic_string_viewIcSt11char_traitsIcEEN9grpc_core17WeakRefCountedPtrINS4_12_GLOBAL__N_111XdsResolver10ClusterRefEEESt4lessIS3_ESaISt4pairIKS3_S9_EEED2Ev(ptr noundef nonnull align 8 dereferenceable(48) %this) unnamed_addr #4 align 2 {
entry:
  %this.addr = alloca ptr, align 8
  store ptr %this, ptr %this.addr, align 8
  %this1 = load ptr, ptr %this.addr, align 8
  %_M_t = getelementptr inbounds %"class.std::map.234", ptr %this1, i32 0, i32 0
  call void @_ZNSt8_Rb_treeISt17basic_string_viewIcSt11char_traitsIcEESt4pairIKS3_N9grpc_core17WeakRefCountedPtrINS6_12_GLOBAL__N_111XdsResolver10ClusterRefEEEESt10_Select1stISC_ESt4lessIS3_ESaISC_EED2Ev(ptr noundef nonnull align 8 dereferenceable(48) %_M_t) #3
  ret void
}