; Function Attrs: mustprogress nounwind uwtable
define internal fastcc void @_ZNSt3mapISt17basic_string_viewIcSt11char_traitsIcEEN9grpc_core17WeakRefCountedPtrINS4_12_GLOBAL__N_111XdsResolver10ClusterRefEEESt4lessIS3_ESaISt4pairIKS3_S9_EEED2Ev(ptr nocapture noundef nonnull readonly align 8 dereferenceable(48) %this) unnamed_addr #7 align 2 personality ptr @__gxx_personality_v0 {
entry:
  %0 = getelementptr inbounds i8, ptr %this, i64 16
  %this.val.i = load ptr, ptr %0, align 8
  invoke fastcc void @_ZNSt8_Rb_treeISt17basic_string_viewIcSt11char_traitsIcEESt4pairIKS3_N9grpc_core17WeakRefCountedPtrINS6_12_GLOBAL__N_111XdsResolver10ClusterRefEEEESt10_Select1stISC_ESt4lessIS3_ESaISC_EE8_M_eraseEPSt13_Rb_tree_nodeISC_E(ptr noundef %this.val.i)
          to label %_ZNSt8_Rb_treeISt17basic_string_viewIcSt11char_traitsIcEESt4pairIKS3_N9grpc_core17WeakRefCountedPtrINS6_12_GLOBAL__N_111XdsResolver10ClusterRefEEEESt10_Select1stISC_ESt4lessIS3_ESaISC_EED2Ev.exit unwind label %terminate.lpad.i

terminate.lpad.i:                                 ; preds = %entry
  %1 = landingpad { ptr, i32 }
          catch ptr null
  %2 = extractvalue { ptr, i32 } %1, 0
  tail call void @__clang_call_terminate(ptr %2) #29
  unreachable

_ZNSt8_Rb_treeISt17basic_string_viewIcSt11char_traitsIcEESt4pairIKS3_N9grpc_core17WeakRefCountedPtrINS6_12_GLOBAL__N_111XdsResolver10ClusterRefEEEESt10_Select1stISC_ESt4lessIS3_ESaISC_EED2Ev.exit: ; preds = %entry
  ret void
}